target datalayout = "e-m:e-p270:32:32-p271:32:32-p272:64:64-i64:64-i128:128-f80:128-n8:16:32:64-S128"
target triple = "x86_64-pc-linux-gnu"

%class.JfrStackFrame = type <{ ptr, i64, i32, i32, i8, [7 x i8] }>

; Function Attrs: mustprogress nounwind uwtable
define hidden noundef zeroext i1 @_ZNK13JfrStackFrame6equalsERKS_(ptr noundef nonnull align 8 dereferenceable(25) %0, ptr noundef nonnull align 8 dereferenceable(25) %1) #1 align 2 {
  %3 = alloca ptr, align 8
  %4 = alloca ptr, align 8
  store ptr %0, ptr %3, align 8
  store ptr %1, ptr %4, align 8
  %5 = load ptr, ptr %3, align 8
  %6 = getelementptr inbounds %class.JfrStackFrame, ptr %5, i32 0, i32 1
  %7 = load i64, ptr %6, align 8
  %8 = load ptr, ptr %4, align 8
  %9 = getelementptr inbounds %class.JfrStackFrame, ptr %8, i32 0, i32 1
  %10 = load i64, ptr %9, align 8
  %11 = icmp eq i64 %7, %10
  br i1 %11, label %12, label %28

12:                                               ; preds = %2
  %13 = getelementptr inbounds %class.JfrStackFrame, ptr %5, i32 0, i32 3
  %14 = load i32, ptr %13, align 4
  %15 = load ptr, ptr %4, align 8
  %16 = getelementptr inbounds %class.JfrStackFrame, ptr %15, i32 0, i32 3
  %17 = load i32, ptr %16, align 4
  %18 = icmp eq i32 %14, %17
  br i1 %18, label %19, label %28

19:                                               ; preds = %12
  %20 = getelementptr inbounds %class.JfrStackFrame, ptr %5, i32 0, i32 4
  %21 = load i8, ptr %20, align 8
  %22 = zext i8 %21 to i32
  %23 = load ptr, ptr %4, align 8
  %24 = getelementptr inbounds %class.JfrStackFrame, ptr %23, i32 0, i32 4
  %25 = load i8, ptr %24, align 8
  %26 = zext i8 %25 to i32
  %27 = icmp eq i32 %22, %26
  br label %28

28:                                               ; preds = %19, %12, %2
  %29 = phi i1 [ false, %12 ], [ false, %2 ], [ %27, %19 ]
  ret i1 %29
}