; Function Attrs: mustprogress nofree norecurse nosync nounwind willreturn memory(argmem: read) uwtable
define hidden noundef zeroext i1 @_ZNK13JfrStackFrame6equalsERKS_(ptr nocapture noundef nonnull readonly align 8 dereferenceable(25) %0, ptr nocapture noundef nonnull readonly align 8 dereferenceable(25) %1) local_unnamed_addr #4 align 2 {
  %3 = getelementptr inbounds i8, ptr %0, i64 8
  %4 = load i64, ptr %3, align 8
  %5 = getelementptr inbounds i8, ptr %1, i64 8
  %6 = load i64, ptr %5, align 8
  %7 = icmp eq i64 %4, %6
  br i1 %7, label %8, label %20

8:                                                ; preds = %2
  %9 = getelementptr inbounds i8, ptr %0, i64 20
  %10 = load i32, ptr %9, align 4
  %11 = getelementptr inbounds i8, ptr %1, i64 20
  %12 = load i32, ptr %11, align 4
  %13 = icmp eq i32 %10, %12
  br i1 %13, label %14, label %20

14:                                               ; preds = %8
  %15 = getelementptr inbounds i8, ptr %0, i64 24
  %16 = load i8, ptr %15, align 8
  %17 = getelementptr inbounds i8, ptr %1, i64 24
  %18 = load i8, ptr %17, align 8
  %19 = icmp eq i8 %16, %18
  br label %20

20:                                               ; preds = %14, %8, %2
  %21 = phi i1 [ false, %8 ], [ false, %2 ], [ %19, %14 ]
  ret i1 %21
}